target datalayout = "e-m:e-p270:32:32-p271:32:32-p272:64:64-i64:64-i128:128-f80:128-n8:16:32:64-S128"
target triple = "x86_64-pc-linux-gnu"

%class.PtrQueueSet = type { ptr, ptr }
%struct.BufferNodeList = type { ptr, ptr, i64 }
%class.G1RedirtyCardsQueueSet = type { %class.PtrQueueSet, [128 x i8], %class.LockFreeStack, [120 x i8], i64, [120 x i8], ptr }
%class.LockFreeStack = type { ptr }
%"struct.Atomic::XchgImpl" = type { i8 }
%"struct.Atomic::PlatformXchg" = type { i8 }

; Function Attrs: mustprogress nounwind uwtable
define linkonce_odr hidden noundef ptr @_ZNK6Atomic12PlatformXchgILm8EEclIP10BufferNodeEET_PVS5_S5_19atomic_memory_order(ptr noundef nonnull align 1 dereferenceable(1) %0, ptr noundef %1, ptr noundef %2, i32 noundef %3) #1 comdat align 2 {
  %5 = alloca ptr, align 8
  %6 = alloca ptr, align 8
  %7 = alloca ptr, align 8
  %8 = alloca i32, align 4
  store ptr %0, ptr %5, align 8
  store ptr %1, ptr %6, align 8
  store ptr %2, ptr %7, align 8
  store i32 %3, ptr %8, align 4
  %9 = load ptr, ptr %7, align 8
  %10 = load ptr, ptr %6, align 8
  %11 = call ptr asm sideeffect "xchgq ($2),$0", "=r,0,r,~{memory},~{dirflag},~{fpsr},~{flags}"(ptr %9, ptr %10) #5, !srcloc !7
  store ptr %11, ptr %7, align 8
  %12 = load ptr, ptr %7, align 8
  ret ptr %12
}

; Function Attrs: mustprogress nounwind uwtable
define linkonce_odr hidden noundef ptr @_ZNK6Atomic8XchgImplIP10BufferNodeS2_vEclEPVS2_S2_19atomic_memory_order(ptr noundef nonnull align 1 dereferenceable(1) %0, ptr noundef %1, ptr noundef %2, i32 noundef %3) #1 comdat align 2 {
  %5 = alloca ptr, align 8
  %6 = alloca ptr, align 8
  %7 = alloca ptr, align 8
  %8 = alloca i32, align 4
  %9 = alloca ptr, align 8
  %10 = alloca %"struct.Atomic::PlatformXchg", align 1
  store ptr %0, ptr %5, align 8
  store ptr %1, ptr %6, align 8
  store ptr %2, ptr %7, align 8
  store i32 %3, ptr %8, align 4
  %11 = load ptr, ptr %7, align 8
  store ptr %11, ptr %9, align 8
  %12 = load ptr, ptr %6, align 8
  %13 = load ptr, ptr %9, align 8
  %14 = load i32, ptr %8, align 4
  %15 = call noundef ptr @_ZNK6Atomic12PlatformXchgILm8EEclIP10BufferNodeEET_PVS5_S5_19atomic_memory_order(ptr noundef nonnull align 1 dereferenceable(1) %10, ptr noundef %12, ptr noundef %13, i32 noundef %14)
  ret ptr %15
}

; Function Attrs: mustprogress nounwind uwtable
define linkonce_odr hidden noundef ptr @_ZN6Atomic4xchgIP10BufferNodeS2_EET_PVS3_T0_19atomic_memory_order(ptr noundef %0, ptr noundef %1, i32 noundef %2) #1 comdat align 2 {
  %4 = alloca ptr, align 8
  %5 = alloca ptr, align 8
  %6 = alloca i32, align 4
  %7 = alloca %"struct.Atomic::XchgImpl", align 1
  store ptr %0, ptr %4, align 8
  store ptr %1, ptr %5, align 8
  store i32 %2, ptr %6, align 4
  %8 = load ptr, ptr %4, align 8
  %9 = load ptr, ptr %5, align 8
  %10 = load i32, ptr %6, align 4
  %11 = call noundef ptr @_ZNK6Atomic8XchgImplIP10BufferNodeS2_vEclEPVS2_S2_19atomic_memory_order(ptr noundef nonnull align 1 dereferenceable(1) %7, ptr noundef %8, ptr noundef %9, i32 noundef %10)
  ret ptr %11
}

; Function Attrs: mustprogress nounwind uwtable
define linkonce_odr hidden noundef ptr @_ZN13LockFreeStackI10BufferNodeXadL_ZNS0_8next_ptrERS0_EEE7pop_allEv(ptr noundef nonnull align 8 dereferenceable(8) %0) #1 comdat align 2 {
  %2 = alloca ptr, align 8
  store ptr %0, ptr %2, align 8
  %3 = load ptr, ptr %2, align 8
  %4 = getelementptr inbounds %class.LockFreeStack, ptr %3, i32 0, i32 0
  %5 = call noundef ptr @_ZN6Atomic4xchgIP10BufferNodeS2_EET_PVS3_T0_19atomic_memory_order(ptr noundef %4, ptr noundef null, i32 noundef 8)
  ret ptr %5
}

; Function Attrs: mustprogress nounwind uwtable
define hidden void @_ZN22G1RedirtyCardsQueueSet26take_all_completed_buffersEv(ptr dead_on_unwind noalias writable sret(%struct.BufferNodeList) align 8 %0, ptr noundef nonnull align 8 dereferenceable(408) %1) #1 align 2 {
  %3 = alloca ptr, align 8
  store ptr %1, ptr %3, align 8
  %4 = load ptr, ptr %3, align 8
  %5 = getelementptr inbounds %class.G1RedirtyCardsQueueSet, ptr %4, i32 0, i32 2
  %6 = call noundef ptr @_ZN13LockFreeStackI10BufferNodeXadL_ZNS0_8next_ptrERS0_EEE7pop_allEv(ptr noundef nonnull align 8 dereferenceable(8) %5)
  %7 = getelementptr inbounds %class.G1RedirtyCardsQueueSet, ptr %4, i32 0, i32 6
  %8 = load ptr, ptr %7, align 8
  %9 = getelementptr inbounds %class.G1RedirtyCardsQueueSet, ptr %4, i32 0, i32 4
  %10 = load volatile i64, ptr %9, align 8
  call void @_ZN14BufferNodeListC1EP10BufferNodeS1_m(ptr noundef nonnull align 8 dereferenceable(24) %0, ptr noundef %6, ptr noundef %8, i64 noundef %10)
  %11 = getelementptr inbounds %class.G1RedirtyCardsQueueSet, ptr %4, i32 0, i32 6
  store ptr null, ptr %11, align 8
  %12 = getelementptr inbounds %class.G1RedirtyCardsQueueSet, ptr %4, i32 0, i32 4
  store volatile i64 0, ptr %12, align 8
  ret void
}