; Function Attrs: mustprogress nounwind uwtable
define hidden void @_ZN22G1RedirtyCardsQueueSet26take_all_completed_buffersEv(ptr dead_on_unwind noalias writable sret(%struct.BufferNodeList) align 8 %0, ptr noundef nonnull align 8 dereferenceable(408) %1) local_unnamed_addr #0 align 2 {
  %3 = getelementptr inbounds i8, ptr %1, i64 144
  %4 = tail call noundef ptr asm sideeffect "xchgq ($2),$0", "=r,0,r,~{memory},~{dirflag},~{fpsr},~{flags}"(ptr null, ptr nonnull %3) #6, !srcloc !10
  %5 = getelementptr inbounds i8, ptr %1, i64 400
  %6 = load ptr, ptr %5, align 8
  %7 = getelementptr inbounds i8, ptr %1, i64 272
  %8 = load volatile i64, ptr %7, align 8
  tail call void @_ZN14BufferNodeListC1EP10BufferNodeS1_m(ptr noundef nonnull align 8 dereferenceable(24) %0, ptr noundef %4, ptr noundef %6, i64 noundef %8) #6
  store ptr null, ptr %5, align 8
  store volatile i64 0, ptr %7, align 8
  ret void
}